target datalayout = "e-m:e-p270:32:32-p271:32:32-p272:64:64-i64:64-i128:128-f80:128-n8:16:32:64-S128"
target triple = "x86_64-pc-linux-gnu"

%struct.AVCodecContext = type { ptr, i32, i32, ptr, i32, i32, ptr, ptr, ptr, i64, i32, i32, ptr, i32, %struct.AVRational, %struct.AVRational, %struct.AVRational, i32, i32, i32, i32, i32, %struct.AVRational, i32, i32, i32, i32, i32, i32, i32, i32, i32, i32, i32, ptr, ptr, i32, float, float, float, float, float, float, float, float, float, i32, i32, i32, i32, i32, i32, i32, i32, i32, i32, i32, i32, ptr, ptr, ptr, i32, i32, i32, i32, i32, i32, i32, i32, i32, i32, %struct.AVChannelLayout, i32, i32, i32, i32, i32, i32, i32, i32, ptr, i32, i32, i32, float, float, i32, i32, i32, i32, i32, ptr, i64, i64, float, float, i32, i32, ptr, ptr, i32, i32, i32, i32, i32, ptr, ptr, ptr, ptr, i32, i32, [8 x i64], i32, i32, i32, i32, i32, i32, i32, ptr, ptr, i32, i32, i32, i32, i32, i32, i32, i32, i32, i32, ptr, ptr, i32, i32, ptr, ptr, ptr, ptr, i32, i32, i64, i32, i32, i64, ptr, i64, ptr, i32, ptr, i32 }
%struct.AVRational = type { i32, i32 }
%struct.AVChannelLayout = type { i32, i32, %union.anon.0, ptr }
%union.anon.0 = type { i64 }
%struct.AICContext = type { ptr, ptr, %struct.IDCTDSPContext, i32, i32, i32, i32, i32, i32, ptr, [4 x ptr], [8 x i8], [64 x i16], [64 x i8] }
%struct.IDCTDSPContext = type { ptr, ptr, ptr, ptr, ptr, ptr, [64 x i8], i32, i32 }

@aic_quant_matrix = internal constant [64 x i8] c"\08\10\13\16\16\1A\1A\1B\10\10\16\16\1A\1B\1B\1D\13\16\1A\1A\1B\1D\1D#\16\18\1B\1B\1D \22&\1A\1B\1D\1D #&.\1B\1D\22\22#(.8\1D\22\22%(08E\22%&(0:ES", align 16
@.str.2 = private unnamed_addr constant [31 x i8] c"Error allocating slice buffer\0A\00", align 1
@aic_band_off = internal constant [4 x i16] [i16 0, i16 64, i16 96, i16 288], align 2

; Function Attrs: cold nounwind optsize uwtable
define internal i32 @aic_decode_init(ptr noundef %0) #0 {
  %2 = alloca i32, align 4
  %3 = alloca ptr, align 8
  %4 = alloca ptr, align 8
  %5 = alloca i32, align 4
  %6 = alloca i32, align 4
  store ptr %0, ptr %3, align 8, !tbaa !4
  call void @llvm.lifetime.start.p0(i64 8, ptr %4) #9
  %7 = load ptr, ptr %3, align 8, !tbaa !4
  %8 = getelementptr inbounds nuw %struct.AVCodecContext, ptr %7, i32 0, i32 6
  %9 = load ptr, ptr %8, align 8, !tbaa !9
  store ptr %9, ptr %4, align 8, !tbaa !29
  call void @llvm.lifetime.start.p0(i64 4, ptr %5) #9
  %10 = load ptr, ptr %3, align 8, !tbaa !4
  %11 = load ptr, ptr %4, align 8, !tbaa !29
  %12 = getelementptr inbounds nuw %struct.AICContext, ptr %11, i32 0, i32 0
  store ptr %10, ptr %12, align 16, !tbaa !31
  %13 = load ptr, ptr %3, align 8, !tbaa !4
  %14 = getelementptr inbounds nuw %struct.AVCodecContext, ptr %13, i32 0, i32 23
  store i32 0, ptr %14, align 8, !tbaa !35
  %15 = load ptr, ptr %4, align 8, !tbaa !29
  %16 = getelementptr inbounds nuw %struct.AICContext, ptr %15, i32 0, i32 2
  %17 = load ptr, ptr %3, align 8, !tbaa !4
  call void @ff_idctdsp_init(ptr noundef %16, ptr noundef %17)
  store i32 0, ptr %5, align 4, !tbaa !36
  br label %18

18:                                               ; preds = %37, %1
  %19 = load i32, ptr %5, align 4, !tbaa !36
  %20 = icmp slt i32 %19, 64
  br i1 %20, label %21, label %40

21:                                               ; preds = %18
  %22 = load i32, ptr %5, align 4, !tbaa !36
  %23 = sext i32 %22 to i64
  %24 = getelementptr inbounds [64 x i8], ptr @aic_quant_matrix, i64 0, i64 %23
  %25 = load i8, ptr %24, align 1, !tbaa !37
  %26 = load ptr, ptr %4, align 8, !tbaa !29
  %27 = getelementptr inbounds nuw %struct.AICContext, ptr %26, i32 0, i32 13
  %28 = load ptr, ptr %4, align 8, !tbaa !29
  %29 = getelementptr inbounds nuw %struct.AICContext, ptr %28, i32 0, i32 2
  %30 = getelementptr inbounds nuw %struct.IDCTDSPContext, ptr %29, i32 0, i32 6
  %31 = load i32, ptr %5, align 4, !tbaa !36
  %32 = sext i32 %31 to i64
  %33 = getelementptr inbounds [64 x i8], ptr %30, i64 0, i64 %32
  %34 = load i8, ptr %33, align 1, !tbaa !37
  %35 = zext i8 %34 to i64
  %36 = getelementptr inbounds nuw [64 x i8], ptr %27, i64 0, i64 %35
  store i8 %25, ptr %36, align 1, !tbaa !37
  br label %37

37:                                               ; preds = %21
  %38 = load i32, ptr %5, align 4, !tbaa !36
  %39 = add nsw i32 %38, 1
  store i32 %39, ptr %5, align 4, !tbaa !36
  br label %18, !llvm.loop !38

40:                                               ; preds = %18
  %41 = load ptr, ptr %3, align 8, !tbaa !4
  %42 = getelementptr inbounds nuw %struct.AVCodecContext, ptr %41, i32 0, i32 18
  %43 = load i32, ptr %42, align 8, !tbaa !40
  %44 = add nsw i32 %43, 16
  %45 = sub nsw i32 %44, 1
  %46 = and i32 %45, -16
  %47 = ashr i32 %46, 4
  %48 = load ptr, ptr %4, align 8, !tbaa !29
  %49 = getelementptr inbounds nuw %struct.AICContext, ptr %48, i32 0, i32 5
  store i32 %47, ptr %49, align 16, !tbaa !41
  %50 = load ptr, ptr %3, align 8, !tbaa !4
  %51 = getelementptr inbounds nuw %struct.AVCodecContext, ptr %50, i32 0, i32 19
  %52 = load i32, ptr %51, align 4, !tbaa !42
  %53 = add nsw i32 %52, 16
  %54 = sub nsw i32 %53, 1
  %55 = and i32 %54, -16
  %56 = ashr i32 %55, 4
  %57 = load ptr, ptr %4, align 8, !tbaa !29
  %58 = getelementptr inbounds nuw %struct.AICContext, ptr %57, i32 0, i32 6
  store i32 %56, ptr %58, align 4, !tbaa !43
  %59 = load ptr, ptr %4, align 8, !tbaa !29
  %60 = getelementptr inbounds nuw %struct.AICContext, ptr %59, i32 0, i32 5
  %61 = load i32, ptr %60, align 16, !tbaa !41
  %62 = add nsw i32 %61, 15
  %63 = ashr i32 %62, 4
  %64 = load ptr, ptr %4, align 8, !tbaa !29
  %65 = getelementptr inbounds nuw %struct.AICContext, ptr %64, i32 0, i32 3
  store i32 %63, ptr %65, align 8, !tbaa !44
  %66 = load ptr, ptr %4, align 8, !tbaa !29
  %67 = getelementptr inbounds nuw %struct.AICContext, ptr %66, i32 0, i32 4
  store i32 16, ptr %67, align 4, !tbaa !45
  store i32 1, ptr %5, align 4, !tbaa !36
  br label %68

68:                                               ; preds = %100, %40
  %69 = load i32, ptr %5, align 4, !tbaa !36
  %70 = load ptr, ptr %4, align 8, !tbaa !29
  %71 = getelementptr inbounds nuw %struct.AICContext, ptr %70, i32 0, i32 5
  %72 = load i32, ptr %71, align 16, !tbaa !41
  %73 = icmp slt i32 %69, %72
  br i1 %73, label %74, label %103

74:                                               ; preds = %68
  %75 = load ptr, ptr %4, align 8, !tbaa !29
  %76 = getelementptr inbounds nuw %struct.AICContext, ptr %75, i32 0, i32 5
  %77 = load i32, ptr %76, align 16, !tbaa !41
  %78 = load i32, ptr %5, align 4, !tbaa !36
  %79 = srem i32 %77, %78
  %80 = icmp ne i32 %79, 0
  br i1 %80, label %99, label %81

81:                                               ; preds = %74
  %82 = load ptr, ptr %4, align 8, !tbaa !29
  %83 = getelementptr inbounds nuw %struct.AICContext, ptr %82, i32 0, i32 5
  %84 = load i32, ptr %83, align 16, !tbaa !41
  %85 = load i32, ptr %5, align 4, !tbaa !36
  %86 = sdiv i32 %84, %85
  %87 = icmp sle i32 %86, 32
  br i1 %87, label %88, label %99

88:                                               ; preds = %81
  %89 = load ptr, ptr %4, align 8, !tbaa !29
  %90 = getelementptr inbounds nuw %struct.AICContext, ptr %89, i32 0, i32 5
  %91 = load i32, ptr %90, align 16, !tbaa !41
  %92 = load i32, ptr %5, align 4, !tbaa !36
  %93 = sdiv i32 %91, %92
  %94 = load ptr, ptr %4, align 8, !tbaa !29
  %95 = getelementptr inbounds nuw %struct.AICContext, ptr %94, i32 0, i32 4
  store i32 %93, ptr %95, align 4, !tbaa !45
  %96 = load i32, ptr %5, align 4, !tbaa !36
  %97 = load ptr, ptr %4, align 8, !tbaa !29
  %98 = getelementptr inbounds nuw %struct.AICContext, ptr %97, i32 0, i32 3
  store i32 %96, ptr %98, align 8, !tbaa !44
  br label %103

99:                                               ; preds = %81, %74
  br label %100

100:                                              ; preds = %99
  %101 = load i32, ptr %5, align 4, !tbaa !36
  %102 = add nsw i32 %101, 1
  store i32 %102, ptr %5, align 4, !tbaa !36
  br label %68, !llvm.loop !46

103:                                              ; preds = %88, %68
  %104 = load ptr, ptr %4, align 8, !tbaa !29
  %105 = getelementptr inbounds nuw %struct.AICContext, ptr %104, i32 0, i32 4
  %106 = load i32, ptr %105, align 4, !tbaa !45
  %107 = sext i32 %106 to i64
  %108 = call noalias ptr @av_calloc(i64 noundef %107, i64 noundef 768)
  %109 = load ptr, ptr %4, align 8, !tbaa !29
  %110 = getelementptr inbounds nuw %struct.AICContext, ptr %109, i32 0, i32 9
  store ptr %108, ptr %110, align 16, !tbaa !47
  %111 = load ptr, ptr %4, align 8, !tbaa !29
  %112 = getelementptr inbounds nuw %struct.AICContext, ptr %111, i32 0, i32 9
  %113 = load ptr, ptr %112, align 16, !tbaa !47
  %114 = icmp ne ptr %113, null
  br i1 %114, label %117, label %115

115:                                              ; preds = %103
  %116 = load ptr, ptr %3, align 8, !tbaa !4
  call void (ptr, i32, ptr, ...) @av_log(ptr noundef %116, i32 noundef 16, ptr noundef @.str.2)
  store i32 -12, ptr %2, align 4
  store i32 1, ptr %6, align 4
  br label %145

117:                                              ; preds = %103
  store i32 0, ptr %5, align 4, !tbaa !36
  br label %118

118:                                              ; preds = %141, %117
  %119 = load i32, ptr %5, align 4, !tbaa !36
  %120 = icmp slt i32 %119, 4
  br i1 %120, label %121, label %144

121:                                              ; preds = %118
  %122 = load ptr, ptr %4, align 8, !tbaa !29
  %123 = getelementptr inbounds nuw %struct.AICContext, ptr %122, i32 0, i32 9
  %124 = load ptr, ptr %123, align 16, !tbaa !47
  %125 = load ptr, ptr %4, align 8, !tbaa !29
  %126 = getelementptr inbounds nuw %struct.AICContext, ptr %125, i32 0, i32 4
  %127 = load i32, ptr %126, align 4, !tbaa !45
  %128 = load i32, ptr %5, align 4, !tbaa !36
  %129 = sext i32 %128 to i64
  %130 = getelementptr inbounds [4 x i16], ptr @aic_band_off, i64 0, i64 %129
  %131 = load i16, ptr %130, align 2, !tbaa !48
  %132 = zext i16 %131 to i32
  %133 = mul nsw i32 %127, %132
  %134 = sext i32 %133 to i64
  %135 = getelementptr inbounds i16, ptr %124, i64 %134
  %136 = load ptr, ptr %4, align 8, !tbaa !29
  %137 = getelementptr inbounds nuw %struct.AICContext, ptr %136, i32 0, i32 10
  %138 = load i32, ptr %5, align 4, !tbaa !36
  %139 = sext i32 %138 to i64
  %140 = getelementptr inbounds [4 x ptr], ptr %137, i64 0, i64 %139
  store ptr %135, ptr %140, align 8, !tbaa !50
  br label %141

141:                                              ; preds = %121
  %142 = load i32, ptr %5, align 4, !tbaa !36
  %143 = add nsw i32 %142, 1
  store i32 %143, ptr %5, align 4, !tbaa !36
  br label %118, !llvm.loop !51

144:                                              ; preds = %118
  store i32 0, ptr %2, align 4
  store i32 1, ptr %6, align 4
  br label %145

145:                                              ; preds = %144, %115
  call void @llvm.lifetime.end.p0(i64 4, ptr %5) #9
  call void @llvm.lifetime.end.p0(i64 8, ptr %4) #9
  %146 = load i32, ptr %2, align 4
  ret i32 %146
}