; Function Attrs: cold nounwind optsize uwtable
define internal range(i32 -12, 1) i32 @aic_decode_init(ptr noundef %0) #0 {
  %2 = getelementptr inbounds nuw i8, ptr %0, i64 32
  %3 = load ptr, ptr %2, align 8, !tbaa !4
  store ptr %0, ptr %3, align 16, !tbaa !27
  %4 = getelementptr inbounds nuw i8, ptr %0, i64 136
  store i32 0, ptr %4, align 8, !tbaa !32
  %5 = getelementptr inbounds nuw i8, ptr %3, i64 16
  tail call void @ff_idctdsp_init(ptr noundef nonnull %5, ptr noundef %0) #7
  %6 = getelementptr inbounds nuw i8, ptr %3, i64 336
  %7 = getelementptr inbounds nuw i8, ptr %3, i64 64
  br label %8

8:                                                ; preds = %1, %8
  %indvars.iv = phi i64 [ 0, %1 ], [ %indvars.iv.next, %8 ]
  %9 = getelementptr inbounds nuw [64 x i8], ptr @aic_quant_matrix, i64 0, i64 %indvars.iv
  %10 = load i8, ptr %9, align 1, !tbaa !33
  %11 = getelementptr inbounds nuw [64 x i8], ptr %7, i64 0, i64 %indvars.iv
  %12 = load i8, ptr %11, align 1, !tbaa !33
  %13 = zext i8 %12 to i64
  %14 = getelementptr inbounds nuw [64 x i8], ptr %6, i64 0, i64 %13
  store i8 %10, ptr %14, align 1, !tbaa !33
  %indvars.iv.next = add nuw nsw i64 %indvars.iv, 1
  %exitcond.not = icmp eq i64 %indvars.iv.next, 64
  br i1 %exitcond.not, label %15, label %8, !llvm.loop !34

15:                                               ; preds = %8
  %16 = getelementptr inbounds nuw i8, ptr %0, i64 112
  %17 = load i32, ptr %16, align 8, !tbaa !36
  %18 = add nsw i32 %17, 15
  %19 = ashr i32 %18, 4
  %20 = getelementptr inbounds nuw i8, ptr %3, i64 144
  store i32 %19, ptr %20, align 16, !tbaa !37
  %21 = getelementptr inbounds nuw i8, ptr %0, i64 116
  %22 = load i32, ptr %21, align 4, !tbaa !38
  %23 = add nsw i32 %22, 15
  %24 = ashr i32 %23, 4
  %25 = getelementptr inbounds nuw i8, ptr %3, i64 148
  store i32 %24, ptr %25, align 4, !tbaa !39
  %26 = add nsw i32 %19, 15
  %27 = ashr i32 %26, 4
  %28 = getelementptr inbounds nuw i8, ptr %3, i64 136
  store i32 %27, ptr %28, align 8, !tbaa !40
  %29 = getelementptr inbounds nuw i8, ptr %3, i64 140
  store i32 16, ptr %29, align 4, !tbaa !41
  %30 = icmp sgt i32 %19, 1
  br i1 %30, label %.lr.ph, label %.loopexit46

.lr.ph:                                           ; preds = %15, %36
  %.149 = phi i32 [ %37, %36 ], [ 1, %15 ]
  %31 = urem i32 %19, %.149
  %32 = udiv i32 %19, %.149
  %.not = icmp eq i32 %31, 0
  %33 = icmp slt i32 %32, 33
  %or.cond = and i1 %.not, %33
  br i1 %or.cond, label %34, label %36

34:                                               ; preds = %.lr.ph
  store i32 %32, ptr %29, align 4, !tbaa !41
  store i32 %.149, ptr %28, align 8, !tbaa !40
  %35 = zext nneg i32 %32 to i64
  br label %.loopexit46

36:                                               ; preds = %.lr.ph
  %37 = add nuw nsw i32 %.149, 1
  %exitcond53.not = icmp eq i32 %37, %19
  br i1 %exitcond53.not, label %.loopexit46, label %.lr.ph, !llvm.loop !42

.loopexit46:                                      ; preds = %36, %15, %34
  %38 = phi i64 [ 16, %15 ], [ %35, %34 ], [ 16, %36 ]
  %39 = tail call noalias ptr @av_calloc(i64 noundef %38, i64 noundef 768) #7
  %40 = getelementptr inbounds nuw i8, ptr %3, i64 160
  store ptr %39, ptr %40, align 16, !tbaa !43
  %.not45 = icmp eq ptr %39, null
  br i1 %.not45, label %43, label %.preheader

.preheader:                                       ; preds = %.loopexit46
  %41 = load i32, ptr %29, align 4, !tbaa !41
  %42 = getelementptr inbounds nuw i8, ptr %3, i64 168
  br label %44

43:                                               ; preds = %.loopexit46
  tail call void (ptr, i32, ptr, ...) @av_log(ptr noundef %0, i32 noundef 16, ptr noundef nonnull @.str.2) #7
  br label %.loopexit

44:                                               ; preds = %.preheader, %44
  %indvars.iv54 = phi i64 [ 0, %.preheader ], [ %indvars.iv.next55, %44 ]
  %45 = getelementptr inbounds nuw [4 x i16], ptr @aic_band_off, i64 0, i64 %indvars.iv54
  %46 = load i16, ptr %45, align 2, !tbaa !44
  %47 = zext i16 %46 to i32
  %48 = mul nsw i32 %41, %47
  %49 = sext i32 %48 to i64
  %50 = getelementptr inbounds i16, ptr %39, i64 %49
  %51 = getelementptr inbounds nuw [4 x ptr], ptr %42, i64 0, i64 %indvars.iv54
  store ptr %50, ptr %51, align 8, !tbaa !46
  %indvars.iv.next55 = add nuw nsw i64 %indvars.iv54, 1
  %exitcond57.not = icmp eq i64 %indvars.iv.next55, 4
  br i1 %exitcond57.not, label %.loopexit, label %44, !llvm.loop !47

.loopexit:                                        ; preds = %44, %43
  %.042 = phi i32 [ -12, %43 ], [ 0, %44 ]
  ret i32 %.042
}